target datalayout = "e-m:e-p270:32:32-p271:32:32-p272:64:64-i64:64-i128:128-f80:128-n8:16:32:64-S128"
target triple = "x86_64-pc-linux-gnu"

%"class.icu_77::UObject" = type { ptr }
%"class.icu_77::DataBuilderCollationIterator" = type <{ %"class.icu_77::CollationIterator.base", [3 x i8], ptr, %"struct.icu_77::CollationData", [67 x i32], [4 x i8], ptr, i32, [4 x i8] }>
%"class.icu_77::CollationIterator.base" = type <{ %"class.icu_77::UObject", ptr, ptr, %"class.icu_77::CollationIterator::CEBuffer", i32, [4 x i8], ptr, i32, i8 }>
%"class.icu_77::CollationIterator::CEBuffer" = type { i32, %"class.icu_77::MaybeStackArray" }
%"class.icu_77::MaybeStackArray" = type { ptr, i32, i8, [40 x i64] }
%"struct.icu_77::CollationData" = type <{ ptr, ptr, ptr, ptr, ptr, ptr, ptr, i32, i32, i32, i32, ptr, ptr, ptr, i32, i32, ptr, ptr, i32, [4 x i8], ptr, i32, [4 x i8] }>

; Function Attrs: mustprogress uwtable
define void @_ZN6icu_7728DataBuilderCollationIterator21backwardNumCodePointsEiR10UErrorCode(ptr noundef nonnull align 8 dereferenceable(828) %0, i32 noundef %1, ptr noundef nonnull align 4 dereferenceable(4) %2) unnamed_addr #4 align 2 {
  %4 = alloca ptr, align 8
  %5 = alloca i32, align 4
  %6 = alloca ptr, align 8
  store ptr %0, ptr %4, align 8, !tbaa !11
  store i32 %1, ptr %5, align 4, !tbaa !57
  store ptr %2, ptr %6, align 8, !tbaa !8
  %7 = load ptr, ptr %4, align 8
  %8 = getelementptr inbounds nuw %"class.icu_77::DataBuilderCollationIterator", ptr %7, i32 0, i32 6
  %9 = load ptr, ptr %8, align 8, !tbaa !42
  %10 = getelementptr inbounds nuw %"class.icu_77::DataBuilderCollationIterator", ptr %7, i32 0, i32 7
  %11 = load i32, ptr %10, align 8, !tbaa !53
  %12 = load i32, ptr %5, align 4, !tbaa !57
  %13 = sub nsw i32 0, %12
  %14 = call noundef i32 @_ZNK6icu_7713UnicodeString11moveIndex32Eii(ptr noundef nonnull align 8 dereferenceable(64) %9, i32 noundef %11, i32 noundef %13)
  %15 = getelementptr inbounds nuw %"class.icu_77::DataBuilderCollationIterator", ptr %7, i32 0, i32 7
  store i32 %14, ptr %15, align 8, !tbaa !53
  ret void
}